; Function Attrs: inlinehint mustprogress nounwind uwtable
define internal void @"_ZZN7testing12RegisterTestITpTnRiJEZNS_8internal23InsertSyntheticTestCaseERKNSt7__cxx1112basic_stringIcSt11char_traitsIcESaIcEEENS2_12CodeLocationEbE3$_0EEPNS_8TestInfoEPKcSG_SG_SG_SG_iT0_EN11FactoryImplD0Ev"(ptr noundef nonnull align 8 dereferenceable(80) initializes((0, 8)) %0) unnamed_addr #11 align 2 personality ptr @__gxx_personality_v0 {
  store ptr getelementptr inbounds nuw inrange(-16, 24) (i8, ptr @"_ZTVZN7testing12RegisterTestITpTnRiJEZNS_8internal23InsertSyntheticTestCaseERKNSt7__cxx1112basic_stringIcSt11char_traitsIcESaIcEEENS2_12CodeLocationEbE3$_0EEPNS_8TestInfoEPKcSG_SG_SG_SG_iT0_E11FactoryImpl", i64 16), ptr %0, align 8, !tbaa !23
  %2 = getelementptr inbounds nuw i8, ptr %0, i64 8
  %3 = getelementptr inbounds nuw i8, ptr %0, i64 40
  %4 = load ptr, ptr %3, align 8, !tbaa !4
  %5 = getelementptr inbounds nuw i8, ptr %0, i64 56
  %6 = icmp eq ptr %4, %5
  br i1 %6, label %_ZNKSt7__cxx1112basic_stringIcSt11char_traitsIcESaIcEE11_M_is_localEv.exit.thread.i.i.i.i.i, label %_ZNKSt7__cxx1112basic_stringIcSt11char_traitsIcESaIcEE11_M_is_localEv.exit.i.i.i.i.i

_ZNKSt7__cxx1112basic_stringIcSt11char_traitsIcESaIcEE11_M_is_localEv.exit.thread.i.i.i.i.i: ; preds = %1
  %7 = getelementptr inbounds nuw i8, ptr %0, i64 48
  %8 = load i64, ptr %7, align 8, !tbaa !12
  %9 = icmp ult i64 %8, 16
  tail call void @llvm.assume(i1 %9)
  br label %_ZN7testing8internal12CodeLocationD2Ev.exit.i.i

_ZNKSt7__cxx1112basic_stringIcSt11char_traitsIcESaIcEE11_M_is_localEv.exit.i.i.i.i.i: ; preds = %1
  %10 = load i64, ptr %5, align 8, !tbaa !13
  %11 = add i64 %10, 1
  tail call void @_ZdlPvm(ptr noundef %4, i64 noundef %11) #59
  br label %_ZN7testing8internal12CodeLocationD2Ev.exit.i.i

_ZN7testing8internal12CodeLocationD2Ev.exit.i.i:  ; preds = %_ZNKSt7__cxx1112basic_stringIcSt11char_traitsIcESaIcEE11_M_is_localEv.exit.i.i.i.i.i, %_ZNKSt7__cxx1112basic_stringIcSt11char_traitsIcESaIcEE11_M_is_localEv.exit.thread.i.i.i.i.i
  %12 = load ptr, ptr %2, align 8, !tbaa !4
  %13 = getelementptr inbounds nuw i8, ptr %0, i64 24
  %14 = icmp eq ptr %12, %13
  br i1 %14, label %_ZNKSt7__cxx1112basic_stringIcSt11char_traitsIcESaIcEE11_M_is_localEv.exit.thread.i.i.i.i, label %_ZNKSt7__cxx1112basic_stringIcSt11char_traitsIcESaIcEE11_M_is_localEv.exit.i.i.i.i

_ZNKSt7__cxx1112basic_stringIcSt11char_traitsIcESaIcEE11_M_is_localEv.exit.thread.i.i.i.i: ; preds = %_ZN7testing8internal12CodeLocationD2Ev.exit.i.i
  %15 = getelementptr inbounds nuw i8, ptr %0, i64 16
  %16 = load i64, ptr %15, align 8, !tbaa !12
  %17 = icmp ult i64 %16, 16
  tail call void @llvm.assume(i1 %17)
  br label %"_ZZN7testing12RegisterTestITpTnRiJEZNS_8internal23InsertSyntheticTestCaseERKNSt7__cxx1112basic_stringIcSt11char_traitsIcESaIcEEENS2_12CodeLocationEbE3$_0EEPNS_8TestInfoEPKcSG_SG_SG_SG_iT0_EN11FactoryImplD2Ev.exit"

_ZNKSt7__cxx1112basic_stringIcSt11char_traitsIcESaIcEE11_M_is_localEv.exit.i.i.i.i: ; preds = %_ZN7testing8internal12CodeLocationD2Ev.exit.i.i
  %18 = load i64, ptr %13, align 8, !tbaa !13
  %19 = add i64 %18, 1
  tail call void @_ZdlPvm(ptr noundef %12, i64 noundef %19) #59
  br label %"_ZZN7testing12RegisterTestITpTnRiJEZNS_8internal23InsertSyntheticTestCaseERKNSt7__cxx1112basic_stringIcSt11char_traitsIcESaIcEEENS2_12CodeLocationEbE3$_0EEPNS_8TestInfoEPKcSG_SG_SG_SG_iT0_EN11FactoryImplD2Ev.exit"

"_ZZN7testing12RegisterTestITpTnRiJEZNS_8internal23InsertSyntheticTestCaseERKNSt7__cxx1112basic_stringIcSt11char_traitsIcESaIcEEENS2_12CodeLocationEbE3$_0EEPNS_8TestInfoEPKcSG_SG_SG_SG_iT0_EN11FactoryImplD2Ev.exit": ; preds = %_ZNKSt7__cxx1112basic_stringIcSt11char_traitsIcESaIcEE11_M_is_localEv.exit.thread.i.i.i.i, %_ZNKSt7__cxx1112basic_stringIcSt11char_traitsIcESaIcEE11_M_is_localEv.exit.i.i.i.i
  tail call void @_ZdlPvm(ptr noundef nonnull %0, i64 noundef 80) #59
  ret void
}